; Function Attrs: mustprogress nofree norecurse nosync nounwind willreturn memory(read, inaccessiblemem: none) uwtable
define hidden noundef zeroext i1 @_ZNK4cvc58internal4prop16MinisatSatSolver2okEv(ptr nocapture noundef nonnull readonly align 8 dereferenceable(168) %this) unnamed_addr #14 align 2 {
entry:
  %d_minisat = getelementptr inbounds i8, ptr %this, i64 24
  %0 = load ptr, ptr %d_minisat, align 8
  %ok.i = getelementptr inbounds i8, ptr %0, i64 344
  %1 = load i8, ptr %ok.i, align 8
  %2 = and i8 %1, 1
  %tobool.i = icmp ne i8 %2, 0
  ret i1 %tobool.i
}